; Function Attrs: mustprogress uwtable
define internal void @"_ZNSt17_Function_handlerIFvRKN2lp11explanationEEZN3nla7grobner14is_conflictingERKN2dd6solver8equationEE3$_1E9_M_invokeERKSt9_Any_dataS3_"(ptr noundef nonnull readonly align 8 captures(none) dereferenceable(16) %0, ptr noundef nonnull align 8 dereferenceable(32) %1) #4 align 2 personality ptr @__gxx_personality_v0 {
  %3 = alloca %"class.nla::new_lemma", align 8
  %.val = load ptr, ptr %0, align 8, !tbaa !756
  %.val.val = load ptr, ptr %.val, align 8, !tbaa !8
  call void @llvm.lifetime.start.p0(i64 16, ptr nonnull %3) #26
  call void @_ZN3nla9new_lemmaC1ERNS_4coreEPKc(ptr noundef nonnull align 8 dereferenceable(16) %3, ptr noundef nonnull align 8 dereferenceable(4736) %.val.val, ptr noundef nonnull @.str.42)
  %4 = invoke noundef nonnull align 8 dereferenceable(16) ptr @_ZN3nla9new_lemmaaNERKN2lp11explanationE(ptr noundef nonnull align 8 dereferenceable(16) %3, ptr noundef nonnull align 8 dereferenceable(32) %1)
          to label %"_ZSt10__invoke_rIvRZN3nla7grobner14is_conflictingERKN2dd6solver8equationEE3$_1JRKN2lp11explanationEEENSt9enable_ifIX16is_invocable_r_vIT_T0_DpT1_EESE_E4typeEOSF_DpOSG_.exit" unwind label %5

5:                                                ; preds = %2
  %6 = landingpad { ptr, i32 }
          cleanup
  call void @_ZN3nla9new_lemmaD1Ev(ptr noundef nonnull align 8 dereferenceable(16) %3) #26
  call void @llvm.lifetime.end.p0(i64 16, ptr nonnull %3) #26
  resume { ptr, i32 } %6

"_ZSt10__invoke_rIvRZN3nla7grobner14is_conflictingERKN2dd6solver8equationEE3$_1JRKN2lp11explanationEEENSt9enable_ifIX16is_invocable_r_vIT_T0_DpT1_EESE_E4typeEOSF_DpOSG_.exit": ; preds = %2
  call void @_ZN3nla9new_lemmaD1Ev(ptr noundef nonnull align 8 dereferenceable(16) %3) #26
  call void @llvm.lifetime.end.p0(i64 16, ptr nonnull %3) #26
  ret void
}